Certificate:
    Data:
        Version: 3 (0x2)
        Serial Number: 11497674788908048621 (0x9f8ff24d9fd420ed)
    Signature Algorithm: sha1WithRSAEncryption
        Issuer: C=NZ, L=Auckland, O=Qrious/emailAddress=admin@localdomain.local
        Validity
            Not Before: Jan 28 04:14:21 2016 GMT
            Not After : Feb 27 04:14:21 2016 GMT
        Subject: C=NZ, L=Auckland, O=Qrious/emailAddress=admin@localdomain.local
        Subject Public Key Info:
            Public Key Algorithm: rsaEncryption
                Public-Key: (2048 bit)
                Modulus:
                    00:a8:e0:19:5c:74:63:ff:07:32:8c:7a:a8:fb:3f:
                    c3:c0:2c:ca:2b:d5:70:12:81:2c:c2:95:0c:e6:6a:
                    c5:64:ef:be:67:b9:37:d1:aa:94:49:63:ce:ef:dc:
                    12:b3:dc:ce:83:26:b4:35:d7:2a:72:c8:05:fd:03:
                    55:6d:3b:a9:a8:09:3a:b2:d8:25:7f:63:86:5f:8a:
                    b6:8f:e0:fd:b2:f2:92:ba:ef:36:61:f1:95:22:88:
                    19:ee:19:24:28:18:51:46:da:af:31:31:05:50:4c:
                    9a:11:01:71:73:33:66:61:99:57:68:d5:0a:8a:85:
                    ba:35:55:f1:57:af:6d:b4:05:58:29:dd:b9:8f:1a:
                    e2:30:9b:d2:ba:51:12:df:8f:60:f6:20:72:86:a5:
                    07:23:08:4a:ef:f8:f6:c2:dc:86:54:1d:ec:42:e1:
                    b0:82:8e:04:2f:f7:17:70:cc:68:55:06:e7:d8:8a:
                    6f:5f:c9:73:09:d5:6f:b4:65:9b:bd:e8:07:b6:0d:
                    88:91:47:e0:38:13:2c:b0:b7:55:7b:aa:e5:d7:70:
                    49:d4:ad:9c:fc:e8:57:7e:a6:ea:48:e5:77:1a:81:
                    64:2a:b7:2b:93:10:e5:91:62:33:02:68:4f:34:f1:
                    3b:80:4a:13:38:95:ae:e1:cc:54:b5:e7:9e:31:8b:
                    7e:95
                Exponent: 65537 (0x10001)
        X509v3 extensions:
            X509v3 Subject Key Identifier: 
                B4:D8:70:54:9B:F5:88:AA:F8:03:8F:B0:18:B1:86:63:B6:98:C2:A0
            X509v3 Authority Key Identifier: 
                keyid:B4:D8:70:54:9B:F5:88:AA:F8:03:8F:B0:18:B1:86:63:B6:98:C2:A0

            X509v3 Basic Constraints: 
                CA:TRUE
    Signature Algorithm: sha1WithRSAEncryption
         78:ae:65:9a:2b:52:86:c4:07:6a:59:d9:2d:87:87:19:17:f7:
         2b:80:09:5f:91:0b:ab:c2:fc:72:02:57:f7:99:a7:83:dc:81:
         3b:17:1a:22:cd:40:c2:79:65:af:e9:92:f4:5b:c4:4e:4d:e0:
         d3:70:31:34:24:ff:5a:37:c3:a0:ab:31:f7:73:2f:8d:7b:fe:
         7c:4b:be:41:38:e9:9c:db:d9:e1:be:47:9d:23:cf:ed:74:7e:
         fc:8b:56:28:4d:e9:01:c9:e1:94:12:aa:d7:ed:55:16:4b:fe:
         4d:e7:3d:a1:ba:f3:a9:2f:d1:02:4b:13:c9:ee:91:45:e8:7d:
         2f:88:89:c6:fd:f0:1d:94:25:77:cf:3e:38:65:8f:5e:3c:e7:
         3a:66:62:39:f5:da:11:52:ee:9a:ef:87:1c:4d:bc:73:bd:e3:
         38:98:27:97:50:44:d3:98:87:ef:cf:c0:3b:62:a8:0f:b0:45:
         22:6c:e2:a4:fd:f7:a3:b4:f0:aa:4c:7d:9a:bf:33:66:58:8e:
         70:18:83:cc:7f:59:22:2d:70:1d:76:01:f5:1e:ff:e6:07:56:
         3e:ac:00:44:68:82:77:97:27:fe:56:df:7a:9e:e7:62:7f:90:
         b5:0b:b9:9d:f1:c6:cf:8c:14:00:d5:5f:b4:63:e0:68:82:e8:
         4c:15:1b:04
-----BEGIN CERTIFICATE-----
MIIDezCCAmOgAwIBAgIJAJ+P8k2f1CDtMA0GCSqGSIb3DQEBBQUAMFQxCzAJBgNV
BAYTAk5aMREwDwYDVQQHDAhBdWNrbGFuZDEPMA0GA1UECgwGUXJpb3VzMSEwHwYJ
KoZIhvcNAQkBFhJhZG1pbkBxcmlvdXMuY28ubnowHhcNMTYwMTI4MDQxNDIxWhcN
MTYwMjI3MDQxNDIxWjBUMQswCQYDVQQGEwJOWjERMA8GA1UEBwwIQXVja2xhbmQx
DzANBgNVBAoMBlFyaW91czEhMB8GCSqGSIb3DQEJARYSYWRtaW5AcXJpb3VzLmNv
Lm56MIIBIjANBgkqhkiG9w0BAQEFAAOCAQ8AMIIBCgKCAQEAqOAZXHRj/wcyjHqo
+z/DwCzKK9VwEoEswpUM5mrFZO++Z7k30aqUSWPO79wSs9zOgya0NdcqcsgF/QNV
bTupqAk6stglf2OGX4q2j+D9svKSuu82YfGVIogZ7hkkKBhRRtqvMTEFUEyaEQFx
czNmYZlXaNUKioW6NVXxV69ttAVYKd25jxriMJvSulES349g9iByhqUHIwhK7/j2
wtyGVB3sQuGwgo4EL/cXcMxoVQbn2IpvX8lzCdVvtGWbvegHtg2IkUfgOBMssLdV
e6rl13BJ1K2c/OhXfqbqSOV3GoFkKrcrkxDlkWIzAmhPNPE7gEoTOJWu4cxUteee
MYt+lQIDAQABo1AwTjAdBgNVHQ4EFgQUtNhwVJv1iKr4A4+wGLGGY7aYwqAwHwYD
VR0jBBgwFoAUtNhwVJv1iKr4A4+wGLGGY7aYwqAwDAYDVR0TBAUwAwEB/zANBgkq
hkiG9w0BAQUFAAOCAQEAeK5lmitShsQHalnZLYeHGRf3K4AJX5ELq8L8cgJX95mn
g9yBOxcaIs1Awnllr+mS9FvETk3g03AxNCT/WjfDoKsx93MvjXv+fEu+QTjpnNvZ
4b5HnSPP7XR+/ItWKE3pAcnhlBKq1+1VFkv+Tec9obrzqS/RAksTye6RReh9L4iJ
xv3wHZQld88+OGWPXjznOmZiOfXaEVLumu+HHE28c73jOJgnl1BE05iH78/AO2Ko
D7BFImzipP33o7Twqkx9mr8zZliOcBiDzH9ZIi1wHXYB9R7/5gdWPqwARGiCd5cn
/lbfep7nYn+QtQu5nfHGz4wUANVftGPgaILoTBUbBA==
-----END CERTIFICATE-----
